	.file	"15_lib.cpp"
	.section	.text._ZN1TC2Eii,"axG",@progbits,_ZN1TC5Eii,comdat
	.align 2
	.weak	_ZN1TC2Eii
	.type	_ZN1TC2Eii, @function
_ZN1TC2Eii:
.LFB1:
	.cfi_startproc
	pushq	%rbp
	.cfi_def_cfa_offset 16
	.cfi_offset 6, -16
	movq	%rsp, %rbp
	.cfi_def_cfa_register 6
	movq	%rdi, -8(%rbp)
	movl	%esi, -12(%rbp)
	movl	%edx, -16(%rbp)
	movq	-8(%rbp), %rax
	movl	-12(%rbp), %edx
	movl	%edx, (%rax)
	movq	-8(%rbp), %rax
	movl	-16(%rbp), %edx
	movl	%edx, 4(%rax)
	nop
	popq	%rbp
	.cfi_def_cfa 7, 8
	ret
	.cfi_endproc
.LFE1:
	.size	_ZN1TC2Eii, .-_ZN1TC2Eii
	.weak	_ZN1TC1Eii
	.set	_ZN1TC1Eii,_ZN1TC2Eii
	.text
	.globl	main
	.type	main, @function
main:
.LFB3:
	.cfi_startproc
	pushq	%rbp
	.cfi_def_cfa_offset 16
	.cfi_offset 6, -16
	movq	%rsp, %rbp
	.cfi_def_cfa_register 6
	subq	$32, %rsp
	leaq	-16(%rbp), %rax
	movl	$0, %edx
	movl	$0, %esi
	movq	%rax, %rdi
	call	_ZN1TC1Eii
	movq	-16(%rbp), %rax
	movq	%rax, -32(%rbp)
	movl	$0, %eax
	leave
	.cfi_def_cfa 7, 8
	ret
	.cfi_endproc
.LFE3:
	.size	main, .-main
	.ident	"GCC: (Debian 6.3.0-5) 6.3.0 20170124"
	.section	.note.GNU-stack,"",@progbits
